target datalayout = "e-m:e-p270:32:32-p271:32:32-p272:64:64-i64:64-i128:128-f80:128-n8:16:32:64-S128"
target triple = "x86_64-pc-linux-gnu"

%struct.jpeg_decompress_struct = type { ptr, ptr, ptr, ptr, i32, i32, ptr, i32, i32, i32, i32, i32, i32, i32, double, i32, i32, i32, i32, i32, i32, i32, i32, i32, i32, i32, i32, i32, i32, i32, i32, i32, i32, ptr, i32, i32, i32, i32, i32, ptr, [4 x ptr], [4 x ptr], [4 x ptr], i32, ptr, i32, i32, i32, [16 x i8], [16 x i8], [16 x i8], i32, i32, i8, i8, i8, i16, i16, i32, i8, i32, ptr, i32, i32, i32, i32, i32, ptr, i32, [4 x ptr], i32, i32, i32, [10 x i32], i32, i32, i32, i32, i32, ptr, i32, i32, ptr, ptr, ptr, ptr, ptr, ptr, ptr, ptr, ptr, ptr, ptr }
%struct.my_error_mgr = type { %struct.jpeg_error_mgr, [1 x %struct.__jmp_buf_tag] }
%struct.jpeg_error_mgr = type { ptr, ptr, ptr, ptr, ptr, i32, %union.anon, i32, i64, ptr, i32, ptr, i32, i32 }
%union.anon = type { [8 x i32], [48 x i8] }
%struct.__jmp_buf_tag = type { [8 x i64], i32, %struct.__sigset_t }
%struct.__sigset_t = type { [16 x i64] }
%struct.JPEGReadContext = type { %struct.jpeg_source_mgr, ptr, i64 }
%struct.jpeg_source_mgr = type { ptr, i64, ptr, ptr, ptr, ptr, ptr }
%struct.WebPPicture = type { i32, i32, i32, i32, ptr, ptr, ptr, i32, i32, ptr, i32, [2 x i32], ptr, i32, [3 x i32], ptr, ptr, i32, ptr, ptr, i32, ptr, ptr, [3 x i32], ptr, ptr, [8 x i32], ptr, ptr, [2 x ptr] }

@stderr = external global ptr, align 8
@.str = private unnamed_addr constant [33 x i8] c"Error extracting JPEG metadata!\0A\00", align 1

; Function Attrs: nounwind uwtable
define internal void @SaveMetadataMarkers(ptr noundef %0) #0 {
  %2 = alloca ptr, align 8
  %3 = alloca i32, align 4
  store ptr %0, ptr %2, align 8, !tbaa !68
  call void @llvm.lifetime.start.p0(i64 4, ptr %3) #10
  store i32 65535, ptr %3, align 4, !tbaa !13
  %4 = load ptr, ptr %2, align 8, !tbaa !68
  call void @jpeg_save_markers(ptr noundef %4, i32 noundef 225, i32 noundef 65535)
  %5 = load ptr, ptr %2, align 8, !tbaa !68
  call void @jpeg_save_markers(ptr noundef %5, i32 noundef 226, i32 noundef 65535)
  call void @llvm.lifetime.end.p0(i64 4, ptr %3) #10
  ret void
}

; Function Attrs: nounwind uwtable
define internal void @ContextSetup(ptr noundef %0, ptr noundef %1) #0 {
  %3 = alloca ptr, align 8
  %4 = alloca ptr, align 8
  store ptr %0, ptr %3, align 8, !tbaa !68
  store ptr %1, ptr %4, align 8, !tbaa !70
  %5 = load ptr, ptr %4, align 8, !tbaa !70
  %6 = load ptr, ptr %3, align 8, !tbaa !68
  %7 = getelementptr inbounds nuw %struct.jpeg_decompress_struct, ptr %6, i32 0, i32 6
  store volatile ptr %5, ptr %7, align 8, !tbaa !71
  %8 = load ptr, ptr %4, align 8, !tbaa !70
  %9 = getelementptr inbounds nuw %struct.JPEGReadContext, ptr %8, i32 0, i32 0
  %10 = getelementptr inbounds nuw %struct.jpeg_source_mgr, ptr %9, i32 0, i32 2
  store ptr @ContextInit, ptr %10, align 8, !tbaa !72
  %11 = load ptr, ptr %4, align 8, !tbaa !70
  %12 = getelementptr inbounds nuw %struct.JPEGReadContext, ptr %11, i32 0, i32 0
  %13 = getelementptr inbounds nuw %struct.jpeg_source_mgr, ptr %12, i32 0, i32 3
  store ptr @ContextFill, ptr %13, align 8, !tbaa !73
  %14 = load ptr, ptr %4, align 8, !tbaa !70
  %15 = getelementptr inbounds nuw %struct.JPEGReadContext, ptr %14, i32 0, i32 0
  %16 = getelementptr inbounds nuw %struct.jpeg_source_mgr, ptr %15, i32 0, i32 4
  store ptr @ContextSkip, ptr %16, align 8, !tbaa !74
  %17 = load ptr, ptr %4, align 8, !tbaa !70
  %18 = getelementptr inbounds nuw %struct.JPEGReadContext, ptr %17, i32 0, i32 0
  %19 = getelementptr inbounds nuw %struct.jpeg_source_mgr, ptr %18, i32 0, i32 5
  store ptr @jpeg_resync_to_restart, ptr %19, align 8, !tbaa !75
  %20 = load ptr, ptr %4, align 8, !tbaa !70
  %21 = getelementptr inbounds nuw %struct.JPEGReadContext, ptr %20, i32 0, i32 0
  %22 = getelementptr inbounds nuw %struct.jpeg_source_mgr, ptr %21, i32 0, i32 6
  store ptr @ContextTerm, ptr %22, align 8, !tbaa !76
  %23 = load ptr, ptr %4, align 8, !tbaa !70
  %24 = getelementptr inbounds nuw %struct.JPEGReadContext, ptr %23, i32 0, i32 0
  %25 = getelementptr inbounds nuw %struct.jpeg_source_mgr, ptr %24, i32 0, i32 1
  store i64 0, ptr %25, align 8, !tbaa !77
  %26 = load ptr, ptr %4, align 8, !tbaa !70
  %27 = getelementptr inbounds nuw %struct.JPEGReadContext, ptr %26, i32 0, i32 0
  %28 = getelementptr inbounds nuw %struct.jpeg_source_mgr, ptr %27, i32 0, i32 0
  store ptr null, ptr %28, align 8, !tbaa !78
  ret void
}

; Function Attrs: nounwind uwtable
define hidden i32 @ReadJPEG(ptr noundef %0, i64 noundef %1, ptr noundef %2, i32 noundef %3, ptr noundef %4) #0 {
  %6 = alloca i32, align 4
  %7 = alloca ptr, align 8
  %8 = alloca i64, align 8
  %9 = alloca ptr, align 8
  %10 = alloca i32, align 4
  %11 = alloca ptr, align 8
  %12 = alloca i32, align 4
  %13 = alloca i32, align 4
  %14 = alloca i32, align 4
  %15 = alloca i64, align 8
  %16 = alloca %struct.jpeg_decompress_struct, align 8
  %17 = alloca %struct.my_error_mgr, align 8
  %18 = alloca ptr, align 8
  %19 = alloca [1 x ptr], align 8
  %20 = alloca %struct.JPEGReadContext, align 8
  %21 = alloca i32, align 4
  store ptr %0, ptr %7, align 8, !tbaa !4
  store i64 %1, ptr %8, align 8, !tbaa !9
  store ptr %2, ptr %9, align 8, !tbaa !11
  store i32 %3, ptr %10, align 4, !tbaa !13
  store ptr %4, ptr %11, align 8, !tbaa !15
  call void @llvm.lifetime.start.p0(i64 4, ptr %12) #10
  store volatile i32 0, ptr %12, align 4, !tbaa !13
  call void @llvm.lifetime.start.p0(i64 4, ptr %13) #10
  call void @llvm.lifetime.start.p0(i64 4, ptr %14) #10
  call void @llvm.lifetime.start.p0(i64 8, ptr %15) #10
  call void @llvm.lifetime.start.p0(i64 656, ptr %16) #10
  call void @llvm.lifetime.start.p0(i64 368, ptr %17) #10
  call void @llvm.lifetime.start.p0(i64 8, ptr %18) #10
  store volatile ptr null, ptr %18, align 8, !tbaa !4
  call void @llvm.lifetime.start.p0(i64 8, ptr %19) #10
  call void @llvm.lifetime.start.p0(i64 72, ptr %20) #10
  %22 = load ptr, ptr %7, align 8, !tbaa !4
  %23 = icmp eq ptr %22, null
  br i1 %23, label %30, label %24

24:                                               ; preds = %5
  %25 = load i64, ptr %8, align 8, !tbaa !9
  %26 = icmp eq i64 %25, 0
  br i1 %26, label %30, label %27

27:                                               ; preds = %24
  %28 = load ptr, ptr %9, align 8, !tbaa !11
  %29 = icmp eq ptr %28, null
  br i1 %29, label %30, label %31

30:                                               ; preds = %27, %24, %5
  store i32 0, ptr %6, align 4
  store i32 1, ptr %21, align 4
  br label %151

31:                                               ; preds = %27
  call void @llvm.memset.p0.i64(ptr align 8 %20, i8 0, i64 72, i1 false)
  %32 = load ptr, ptr %7, align 8, !tbaa !4
  %33 = getelementptr inbounds nuw %struct.JPEGReadContext, ptr %20, i32 0, i32 1
  store ptr %32, ptr %33, align 8, !tbaa !17
  %34 = load i64, ptr %8, align 8, !tbaa !9
  %35 = getelementptr inbounds nuw %struct.JPEGReadContext, ptr %20, i32 0, i32 2
  store i64 %34, ptr %35, align 8, !tbaa !20
  call void @llvm.memset.p0.i64(ptr align 8 %16, i8 0, i64 656, i1 false)
  %36 = getelementptr inbounds nuw %struct.my_error_mgr, ptr %17, i32 0, i32 0
  %37 = call ptr @jpeg_std_error(ptr noundef %36)
  %38 = getelementptr inbounds nuw %struct.jpeg_decompress_struct, ptr %16, i32 0, i32 0
  store volatile ptr %37, ptr %38, align 8, !tbaa !21
  %39 = getelementptr inbounds nuw %struct.my_error_mgr, ptr %17, i32 0, i32 0
  %40 = getelementptr inbounds nuw %struct.jpeg_error_mgr, ptr %39, i32 0, i32 0
  store ptr @my_error_exit, ptr %40, align 8, !tbaa !43
  %41 = getelementptr inbounds nuw %struct.my_error_mgr, ptr %17, i32 0, i32 1
  %42 = getelementptr inbounds [1 x %struct.__jmp_buf_tag], ptr %41, i64 0, i64 0
  %43 = call i32 @_setjmp(ptr noundef %42) #11
  %44 = icmp ne i32 %43, 0
  br i1 %44, label %45, label %48

45:                                               ; preds = %31
  br label %46

46:                                               ; preds = %122, %108, %94, %85, %60, %45
  %47 = load ptr, ptr %11, align 8, !tbaa !15
  call void @MetadataFree(ptr noundef %47)
  call void @jpeg_destroy_decompress(ptr noundef %16)
  br label %148

48:                                               ; preds = %31
  call void @jpeg_CreateDecompress(ptr noundef %16, i32 noundef 80, i64 noundef 656)
  call void @ContextSetup(ptr noundef %16, ptr noundef %20)
  %49 = load ptr, ptr %11, align 8, !tbaa !15
  %50 = icmp ne ptr %49, null
  br i1 %50, label %51, label %52

51:                                               ; preds = %48
  call void @SaveMetadataMarkers(ptr noundef %16)
  br label %52

52:                                               ; preds = %51, %48
  %53 = call i32 @jpeg_read_header(ptr noundef %16, i32 noundef 1)
  %54 = getelementptr inbounds nuw %struct.jpeg_decompress_struct, ptr %16, i32 0, i32 11
  store volatile i32 2, ptr %54, align 8, !tbaa !46
  %55 = getelementptr inbounds nuw %struct.jpeg_decompress_struct, ptr %16, i32 0, i32 18
  store volatile i32 1, ptr %55, align 4, !tbaa !47
  %56 = call i32 @jpeg_start_decompress(ptr noundef %16)
  %57 = getelementptr inbounds nuw %struct.jpeg_decompress_struct, ptr %16, i32 0, i32 30
  %58 = load volatile i32, ptr %57, align 4, !tbaa !48
  %59 = icmp ne i32 %58, 3
  br i1 %59, label %60, label %61

60:                                               ; preds = %52
  br label %46

61:                                               ; preds = %52
  %62 = getelementptr inbounds nuw %struct.jpeg_decompress_struct, ptr %16, i32 0, i32 27
  %63 = load volatile i32, ptr %62, align 8, !tbaa !49
  store i32 %63, ptr %13, align 4, !tbaa !13
  %64 = getelementptr inbounds nuw %struct.jpeg_decompress_struct, ptr %16, i32 0, i32 28
  %65 = load volatile i32, ptr %64, align 4, !tbaa !50
  store i32 %65, ptr %14, align 4, !tbaa !13
  %66 = getelementptr inbounds nuw %struct.jpeg_decompress_struct, ptr %16, i32 0, i32 27
  %67 = load volatile i32, ptr %66, align 8, !tbaa !49
  %68 = zext i32 %67 to i64
  %69 = getelementptr inbounds nuw %struct.jpeg_decompress_struct, ptr %16, i32 0, i32 30
  %70 = load volatile i32, ptr %69, align 4, !tbaa !48
  %71 = sext i32 %70 to i64
  %72 = mul nsw i64 %68, %71
  %73 = mul i64 %72, 1
  store i64 %73, ptr %15, align 8, !tbaa !9
  %74 = load i64, ptr %15, align 8, !tbaa !9
  %75 = load i64, ptr %15, align 8, !tbaa !9
  %76 = trunc i64 %75 to i32
  %77 = sext i32 %76 to i64
  %78 = icmp ne i64 %74, %77
  br i1 %78, label %85, label %79

79:                                               ; preds = %61
  %80 = load i64, ptr %15, align 8, !tbaa !9
  %81 = load i32, ptr %14, align 4, !tbaa !13
  %82 = sext i32 %81 to i64
  %83 = call i32 @ImgIoUtilCheckSizeArgumentsOverflow(i64 noundef %80, i64 noundef %82)
  %84 = icmp ne i32 %83, 0
  br i1 %84, label %86, label %85

85:                                               ; preds = %79, %61
  br label %46

86:                                               ; preds = %79
  %87 = load i64, ptr %15, align 8, !tbaa !9
  %88 = load i32, ptr %14, align 4, !tbaa !13
  %89 = sext i32 %88 to i64
  %90 = mul i64 %87, %89
  %91 = call noalias ptr @malloc(i64 noundef %90) #12
  store volatile ptr %91, ptr %18, align 8, !tbaa !4
  %92 = load volatile ptr, ptr %18, align 8, !tbaa !4
  %93 = icmp eq ptr %92, null
  br i1 %93, label %94, label %95

94:                                               ; preds = %86
  br label %46

95:                                               ; preds = %86
  %96 = load volatile ptr, ptr %18, align 8, !tbaa !4
  %97 = getelementptr inbounds [1 x ptr], ptr %19, i64 0, i64 0
  store ptr %96, ptr %97, align 8, !tbaa !4
  br label %98

98:                                               ; preds = %109, %95
  %99 = getelementptr inbounds nuw %struct.jpeg_decompress_struct, ptr %16, i32 0, i32 34
  %100 = load volatile i32, ptr %99, align 8, !tbaa !51
  %101 = getelementptr inbounds nuw %struct.jpeg_decompress_struct, ptr %16, i32 0, i32 28
  %102 = load volatile i32, ptr %101, align 4, !tbaa !50
  %103 = icmp ult i32 %100, %102
  br i1 %103, label %104, label %114

104:                                              ; preds = %98
  %105 = getelementptr inbounds [1 x ptr], ptr %19, i64 0, i64 0
  %106 = call i32 @jpeg_read_scanlines(ptr noundef %16, ptr noundef %105, i32 noundef 1)
  %107 = icmp ne i32 %106, 1
  br i1 %107, label %108, label %109

108:                                              ; preds = %104
  br label %46

109:                                              ; preds = %104
  %110 = load i64, ptr %15, align 8, !tbaa !9
  %111 = getelementptr inbounds [1 x ptr], ptr %19, i64 0, i64 0
  %112 = load ptr, ptr %111, align 8, !tbaa !4
  %113 = getelementptr inbounds i8, ptr %112, i64 %110
  store ptr %113, ptr %111, align 8, !tbaa !4
  br label %98, !llvm.loop !52

114:                                              ; preds = %98
  %115 = load ptr, ptr %11, align 8, !tbaa !15
  %116 = icmp ne ptr %115, null
  br i1 %116, label %117, label %126

117:                                              ; preds = %114
  %118 = load ptr, ptr %11, align 8, !tbaa !15
  %119 = call i32 @ExtractMetadataFromJPEG(ptr noundef %16, ptr noundef %118)
  store volatile i32 %119, ptr %12, align 4, !tbaa !13
  %120 = load volatile i32, ptr %12, align 4, !tbaa !13
  %121 = icmp ne i32 %120, 0
  br i1 %121, label %125, label %122

122:                                              ; preds = %117
  %123 = load ptr, ptr @stderr, align 8, !tbaa !54
  %124 = call i32 (ptr, ptr, ...) @fprintf(ptr noundef %123, ptr noundef @.str) #10
  br label %46

125:                                              ; preds = %117
  br label %126

126:                                              ; preds = %125, %114
  %127 = call i32 @jpeg_finish_decompress(ptr noundef %16)
  call void @jpeg_destroy_decompress(ptr noundef %16)
  %128 = load i32, ptr %13, align 4, !tbaa !13
  %129 = load ptr, ptr %9, align 8, !tbaa !11
  %130 = getelementptr inbounds nuw %struct.WebPPicture, ptr %129, i32 0, i32 2
  store i32 %128, ptr %130, align 8, !tbaa !56
  %131 = load i32, ptr %14, align 4, !tbaa !13
  %132 = load ptr, ptr %9, align 8, !tbaa !11
  %133 = getelementptr inbounds nuw %struct.WebPPicture, ptr %132, i32 0, i32 3
  store i32 %131, ptr %133, align 4, !tbaa !59
  %134 = load ptr, ptr %9, align 8, !tbaa !11
  %135 = load volatile ptr, ptr %18, align 8, !tbaa !4
  %136 = load i64, ptr %15, align 8, !tbaa !9
  %137 = trunc i64 %136 to i32
  %138 = call i32 @WebPPictureImportRGB(ptr noundef %134, ptr noundef %135, i32 noundef %137)
  store volatile i32 %138, ptr %12, align 4, !tbaa !13
  %139 = load volatile i32, ptr %12, align 4, !tbaa !13
  %140 = icmp ne i32 %139, 0
  br i1 %140, label %147, label %141

141:                                              ; preds = %126
  %142 = load ptr, ptr %9, align 8, !tbaa !11
  %143 = getelementptr inbounds nuw %struct.WebPPicture, ptr %142, i32 0, i32 2
  store i32 0, ptr %143, align 8, !tbaa !56
  %144 = load ptr, ptr %9, align 8, !tbaa !11
  %145 = getelementptr inbounds nuw %struct.WebPPicture, ptr %144, i32 0, i32 3
  store i32 0, ptr %145, align 4, !tbaa !59
  %146 = load ptr, ptr %11, align 8, !tbaa !15
  call void @MetadataFree(ptr noundef %146)
  br label %147

147:                                              ; preds = %141, %126
  br label %148

148:                                              ; preds = %147, %46
  %149 = load volatile ptr, ptr %18, align 8, !tbaa !4
  call void @free(ptr noundef %149) #10
  %150 = load volatile i32, ptr %12, align 4, !tbaa !13
  store i32 %150, ptr %6, align 4
  store i32 1, ptr %21, align 4
  br label %151

151:                                              ; preds = %148, %30
  call void @llvm.lifetime.end.p0(i64 72, ptr %20) #10
  call void @llvm.lifetime.end.p0(i64 8, ptr %19) #10
  call void @llvm.lifetime.end.p0(i64 8, ptr %18) #10
  call void @llvm.lifetime.end.p0(i64 368, ptr %17) #10
  call void @llvm.lifetime.end.p0(i64 656, ptr %16) #10
  call void @llvm.lifetime.end.p0(i64 8, ptr %15) #10
  call void @llvm.lifetime.end.p0(i64 4, ptr %14) #10
  call void @llvm.lifetime.end.p0(i64 4, ptr %13) #10
  call void @llvm.lifetime.end.p0(i64 4, ptr %12) #10
  %152 = load i32, ptr %6, align 4
  ret i32 %152
}