; Function Attrs: nounwind uwtable
define hidden i32 @ReadJPEG(ptr noundef %0, i64 noundef %1, ptr noundef %2, i32 noundef %3, ptr noundef %4) local_unnamed_addr #0 {
  %6 = alloca i32, align 4
  %7 = alloca %struct.jpeg_decompress_struct, align 8
  %8 = alloca %struct.my_error_mgr, align 8
  %9 = alloca ptr, align 8
  %10 = alloca [1 x ptr], align 8
  %11 = alloca %struct.JPEGReadContext, align 8
  call void @llvm.lifetime.start.p0(i64 4, ptr nonnull %6)
  store volatile i32 0, ptr %6, align 4, !tbaa !4
  call void @llvm.lifetime.start.p0(i64 656, ptr nonnull %7) #18
  call void @llvm.lifetime.start.p0(i64 368, ptr nonnull %8) #18
  call void @llvm.lifetime.start.p0(i64 8, ptr nonnull %9)
  store volatile ptr null, ptr %9, align 8, !tbaa !8
  call void @llvm.lifetime.start.p0(i64 8, ptr nonnull %10) #18
  call void @llvm.lifetime.start.p0(i64 72, ptr nonnull %11) #18
  %12 = icmp eq ptr %0, null
  %13 = icmp eq i64 %1, 0
  %or.cond = or i1 %12, %13
  %14 = icmp eq ptr %2, null
  %or.cond3 = or i1 %or.cond, %14
  br i1 %or.cond3, label %80, label %15

15:                                               ; preds = %5
  call void @llvm.memset.p0.i64(ptr noundef nonnull align 8 dereferenceable(72) %11, i8 0, i64 56, i1 false)
  %16 = getelementptr inbounds nuw i8, ptr %11, i64 56
  store ptr %0, ptr %16, align 8, !tbaa !11
  %17 = getelementptr inbounds nuw i8, ptr %11, i64 64
  store i64 %1, ptr %17, align 8, !tbaa !15
  %18 = getelementptr inbounds nuw i8, ptr %7, i64 8
  call void @llvm.memset.p0.i64(ptr noundef nonnull align 8 dereferenceable(656) %18, i8 0, i64 648, i1 false)
  %19 = call ptr @jpeg_std_error(ptr noundef nonnull %8) #18
  store volatile ptr %19, ptr %7, align 8, !tbaa !16
  store ptr @my_error_exit, ptr %8, align 8, !tbaa !38
  %20 = getelementptr inbounds nuw i8, ptr %8, i64 168
  %21 = call i32 @_setjmp(ptr noundef nonnull %20) #19
  %.not = icmp eq i32 %21, 0
  br i1 %.not, label %22, label %.loopexit

.loopexit:                                        ; preds = %.lr.ph, %52, %37, %49, %30, %15, %70
  call void @MetadataFree(ptr noundef %4) #18
  call void @jpeg_destroy_decompress(ptr noundef nonnull %7) #18
  br label %79

22:                                               ; preds = %15
  call void @jpeg_CreateDecompress(ptr noundef nonnull %7, i32 noundef 80, i64 noundef 656) #18
  %23 = getelementptr inbounds nuw i8, ptr %7, i64 40
  store volatile ptr %11, ptr %23, align 8, !tbaa !41
  %24 = getelementptr inbounds nuw i8, ptr %11, i64 16
  store ptr @ContextInit, ptr %24, align 8, !tbaa !42
  %25 = getelementptr inbounds nuw i8, ptr %11, i64 24
  store ptr @ContextFill, ptr %25, align 8, !tbaa !43
  %26 = getelementptr inbounds nuw i8, ptr %11, i64 32
  store ptr @ContextSkip, ptr %26, align 8, !tbaa !44
  %27 = getelementptr inbounds nuw i8, ptr %11, i64 40
  store ptr @jpeg_resync_to_restart, ptr %27, align 8, !tbaa !45
  %28 = getelementptr inbounds nuw i8, ptr %11, i64 48
  store ptr @ContextTerm, ptr %28, align 8, !tbaa !46
  call void @llvm.memset.p0.i64(ptr noundef nonnull align 8 dereferenceable(16) %11, i8 0, i64 16, i1 false)
  %.not40 = icmp eq ptr %4, null
  br i1 %.not40, label %30, label %29

29:                                               ; preds = %22
  call void @jpeg_save_markers(ptr noundef nonnull %7, i32 noundef 225, i32 noundef 65535) #18
  call void @jpeg_save_markers(ptr noundef nonnull %7, i32 noundef 226, i32 noundef 65535) #18
  br label %30

30:                                               ; preds = %29, %22
  %31 = call i32 @jpeg_read_header(ptr noundef nonnull %7, i32 noundef 1) #18
  %32 = getelementptr inbounds nuw i8, ptr %7, i64 64
  store volatile i32 2, ptr %32, align 8, !tbaa !47
  %33 = getelementptr inbounds nuw i8, ptr %7, i64 100
  store volatile i32 1, ptr %33, align 4, !tbaa !48
  %34 = call i32 @jpeg_start_decompress(ptr noundef nonnull %7) #18
  %35 = getelementptr inbounds nuw i8, ptr %7, i64 148
  %36 = load volatile i32, ptr %35, align 4, !tbaa !49
  %.not41 = icmp eq i32 %36, 3
  br i1 %.not41, label %37, label %.loopexit

37:                                               ; preds = %30
  %38 = getelementptr inbounds nuw i8, ptr %7, i64 136
  %39 = load volatile i32, ptr %38, align 8, !tbaa !50
  %40 = getelementptr inbounds nuw i8, ptr %7, i64 140
  %41 = load volatile i32, ptr %40, align 4, !tbaa !51
  %42 = load volatile i32, ptr %38, align 8, !tbaa !50
  %43 = zext i32 %42 to i64
  %44 = load volatile i32, ptr %35, align 4, !tbaa !49
  %45 = sext i32 %44 to i64
  %46 = mul nsw i64 %45, %43
  %47 = trunc i64 %46 to i32
  %48 = add nsw i64 %46, 2147483648
  %.not42 = icmp ult i64 %48, 4294967296
  br i1 %.not42, label %49, label %.loopexit

49:                                               ; preds = %37
  %50 = sext i32 %41 to i64
  %51 = call i32 @ImgIoUtilCheckSizeArgumentsOverflow(i64 noundef %46, i64 noundef %50) #18
  %.not43 = icmp eq i32 %51, 0
  br i1 %.not43, label %.loopexit, label %52

52:                                               ; preds = %49
  %53 = mul nsw i64 %46, %50
  %54 = call noalias ptr @malloc(i64 noundef %53) #20
  store volatile ptr %54, ptr %9, align 8, !tbaa !8
  %.0..0..0..0. = load volatile ptr, ptr %9, align 8, !tbaa !8
  %55 = icmp eq ptr %.0..0..0..0., null
  br i1 %55, label %.loopexit, label %56

56:                                               ; preds = %52
  %.0..0..0..0.4 = load volatile ptr, ptr %9, align 8, !tbaa !8
  %57 = getelementptr inbounds nuw i8, ptr %7, i64 168
  store ptr %.0..0..0..0.4, ptr %10, align 8, !tbaa !8
  %58 = load volatile i32, ptr %57, align 8, !tbaa !52
  %59 = load volatile i32, ptr %40, align 4, !tbaa !51
  %60 = icmp ult i32 %58, %59
  br i1 %60, label %.lr.ph, label %._crit_edge

.lr.ph:                                           ; preds = %56, %62
  %61 = call i32 @jpeg_read_scanlines(ptr noundef nonnull %7, ptr noundef nonnull %10, i32 noundef 1) #18
  %.not46 = icmp eq i32 %61, 1
  br i1 %.not46, label %62, label %.loopexit

62:                                               ; preds = %.lr.ph
  %63 = load ptr, ptr %10, align 8, !tbaa !8
  %64 = getelementptr inbounds i8, ptr %63, i64 %46
  store ptr %64, ptr %10, align 8, !tbaa !8
  %65 = load volatile i32, ptr %57, align 8, !tbaa !52
  %66 = load volatile i32, ptr %40, align 4, !tbaa !51
  %67 = icmp ult i32 %65, %66
  br i1 %67, label %.lr.ph, label %._crit_edge, !llvm.loop !53

._crit_edge:                                      ; preds = %62, %56
  br i1 %.not40, label %73, label %68

68:                                               ; preds = %._crit_edge
  %69 = call fastcc i32 @ExtractMetadataFromJPEG(ptr noundef %7, ptr noundef %4)
  store volatile i32 %69, ptr %6, align 4, !tbaa !4
  %.0..0..0..0.16 = load volatile i32, ptr %6, align 4, !tbaa !4
  %.not44 = icmp eq i32 %.0..0..0..0.16, 0
  br i1 %.not44, label %70, label %73

70:                                               ; preds = %68
  %71 = load ptr, ptr @stderr, align 8, !tbaa !55
  %72 = call i64 @fwrite(ptr nonnull @.str, i64 32, i64 1, ptr %71) #21
  br label %.loopexit

73:                                               ; preds = %68, %._crit_edge
  %74 = call i32 @jpeg_finish_decompress(ptr noundef nonnull %7) #18
  call void @jpeg_destroy_decompress(ptr noundef nonnull %7) #18
  %75 = getelementptr inbounds nuw i8, ptr %2, i64 8
  store i32 %39, ptr %75, align 8, !tbaa !57
  %76 = getelementptr inbounds nuw i8, ptr %2, i64 12
  store i32 %41, ptr %76, align 4, !tbaa !60
  %.0..0..0..0.5 = load volatile ptr, ptr %9, align 8, !tbaa !8
  %77 = call i32 @WebPPictureImportRGB(ptr noundef %2, ptr noundef %.0..0..0..0.5, i32 noundef %47) #18
  store volatile i32 %77, ptr %6, align 4, !tbaa !4
  %.0..0..0..0.17 = load volatile i32, ptr %6, align 4, !tbaa !4
  %.not45 = icmp eq i32 %.0..0..0..0.17, 0
  br i1 %.not45, label %78, label %79

78:                                               ; preds = %73
  store i32 0, ptr %75, align 8, !tbaa !57
  store i32 0, ptr %76, align 4, !tbaa !60
  call void @MetadataFree(ptr noundef %4) #18
  br label %79

79:                                               ; preds = %73, %78, %.loopexit
  %.0..0..0..0.6 = load volatile ptr, ptr %9, align 8, !tbaa !8
  call void @free(ptr noundef %.0..0..0..0.6) #18
  %.0..0..0..0.18 = load volatile i32, ptr %6, align 4, !tbaa !4
  br label %80

80:                                               ; preds = %5, %79
  %.0 = phi i32 [ %.0..0..0..0.18, %79 ], [ 0, %5 ]
  call void @llvm.lifetime.end.p0(i64 72, ptr nonnull %11) #18
  call void @llvm.lifetime.end.p0(i64 8, ptr nonnull %10) #18
  call void @llvm.lifetime.end.p0(i64 8, ptr nonnull %9)
  call void @llvm.lifetime.end.p0(i64 368, ptr nonnull %8) #18
  call void @llvm.lifetime.end.p0(i64 656, ptr nonnull %7) #18
  call void @llvm.lifetime.end.p0(i64 4, ptr nonnull %6)
  ret i32 %.0
}